target datalayout = "e-m:e-p270:32:32-p271:32:32-p272:64:64-i64:64-i128:128-f80:128-n8:16:32:64-S128"
target triple = "x86_64-pc-linux-gnu"

%struct._packet_info = type { ptr, ptr, i32, i32, %struct.nstime_t, %struct.nstime_t, %struct.nstime_t, i8, ptr, ptr, ptr, ptr, %struct._address, %struct._address, %struct._address, %struct._address, %struct._address, %struct._address, i32, ptr, i8, [3 x i8], %struct.anon, i32, i32, i32, i32, ptr, i8, ptr, ptr, i16, i16, i32, i32, i16, i32, i32, ptr, ptr, ptr, i8, i8, i16, i16, i16, i32, i16, i16, ptr, ptr, ptr, ptr, ptr, i32, i32 }
%struct.nstime_t = type { i64, i32 }
%struct._address = type { i32, i32, ptr, ptr }
%struct.anon = type { i8, [3 x i8] }
%struct.cip_safety_epath_info = type { i8, i32, i32, i32, i16, i16, i8, %struct.cip_connection_triad, float }
%struct.cip_connection_triad = type { i16, i16, i32 }

@.str.10 = private unnamed_addr constant [8 x i8] c" [C->P]\00", align 1
@.str.11 = private unnamed_addr constant [8 x i8] c" [P->C]\00", align 1

; Function Attrs: nounwind null_pointer_is_valid sspstrong uwtable
define internal i32 @get_cip_safety_data_type(i32 noundef %0, ptr noundef %1) #4 {
  %3 = alloca i32, align 4
  %4 = alloca i32, align 4
  %5 = alloca ptr, align 8
  store i32 %0, ptr %4, align 4
  store ptr %1, ptr %5, align 8
  %6 = load i32, ptr %4, align 4
  %7 = icmp eq i32 %6, 1
  br i1 %7, label %8, label %14

8:                                                ; preds = %2
  %9 = load ptr, ptr %5, align 8
  %10 = getelementptr inbounds nuw %struct.cip_safety_epath_info, ptr %9, i32 0, i32 3
  %11 = load i32, ptr %10, align 4
  %12 = icmp eq i32 %11, 2
  br i1 %12, label %13, label %14

13:                                               ; preds = %8
  store i32 1, ptr %3, align 4
  br label %42

14:                                               ; preds = %8, %2
  %15 = load i32, ptr %4, align 4
  %16 = icmp eq i32 %15, 1
  br i1 %16, label %17, label %23

17:                                               ; preds = %14
  %18 = load ptr, ptr %5, align 8
  %19 = getelementptr inbounds nuw %struct.cip_safety_epath_info, ptr %18, i32 0, i32 3
  %20 = load i32, ptr %19, align 4
  %21 = icmp eq i32 %20, 1
  br i1 %21, label %22, label %23

22:                                               ; preds = %17
  store i32 2, ptr %3, align 4
  br label %42

23:                                               ; preds = %17, %14
  %24 = load i32, ptr %4, align 4
  %25 = icmp eq i32 %24, 2
  br i1 %25, label %26, label %32

26:                                               ; preds = %23
  %27 = load ptr, ptr %5, align 8
  %28 = getelementptr inbounds nuw %struct.cip_safety_epath_info, ptr %27, i32 0, i32 3
  %29 = load i32, ptr %28, align 4
  %30 = icmp eq i32 %29, 2
  br i1 %30, label %31, label %32

31:                                               ; preds = %26
  store i32 2, ptr %3, align 4
  br label %42

32:                                               ; preds = %26, %23
  %33 = load i32, ptr %4, align 4
  %34 = icmp eq i32 %33, 2
  br i1 %34, label %35, label %41

35:                                               ; preds = %32
  %36 = load ptr, ptr %5, align 8
  %37 = getelementptr inbounds nuw %struct.cip_safety_epath_info, ptr %36, i32 0, i32 3
  %38 = load i32, ptr %37, align 4
  %39 = icmp eq i32 %38, 1
  br i1 %39, label %40, label %41

40:                                               ; preds = %35
  store i32 1, ptr %3, align 4
  br label %42

41:                                               ; preds = %35, %32
  store i32 0, ptr %3, align 4
  br label %42

42:                                               ; preds = %41, %40, %31, %22, %13
  %43 = load i32, ptr %3, align 4
  ret i32 %43
}

; Function Attrs: null_pointer_is_valid sspstrong uwtable
define hidden void @add_safety_data_type_to_info_column(ptr noundef %0, i32 noundef %1, ptr noundef %2) #0 {
  %4 = alloca ptr, align 8
  %5 = alloca i32, align 4
  %6 = alloca ptr, align 8
  %7 = alloca i32, align 4
  store ptr %0, ptr %4, align 8
  store i32 %1, ptr %5, align 4
  store ptr %2, ptr %6, align 8
  call void @llvm.lifetime.start.p0(i64 4, ptr %7) #11
  %8 = load i32, ptr %5, align 4
  %9 = load ptr, ptr %6, align 8
  %10 = call i32 @get_cip_safety_data_type(i32 noundef %8, ptr noundef %9)
  store i32 %10, ptr %7, align 4
  %11 = load i32, ptr %7, align 4
  %12 = icmp eq i32 %11, 2
  br i1 %12, label %13, label %17

13:                                               ; preds = %3
  %14 = load ptr, ptr %4, align 8
  %15 = getelementptr inbounds nuw %struct._packet_info, ptr %14, i32 0, i32 1
  %16 = load ptr, ptr %15, align 8
  call void @col_append_str(ptr noundef %16, i32 noundef 25, ptr noundef @.str.10)
  br label %21

17:                                               ; preds = %3
  %18 = load ptr, ptr %4, align 8
  %19 = getelementptr inbounds nuw %struct._packet_info, ptr %18, i32 0, i32 1
  %20 = load ptr, ptr %19, align 8
  call void @col_append_str(ptr noundef %20, i32 noundef 25, ptr noundef @.str.11)
  br label %21

21:                                               ; preds = %17, %13
  call void @llvm.lifetime.end.p0(i64 4, ptr %7) #11
  ret void
}