; Function Attrs: null_pointer_is_valid sspstrong uwtable
define hidden void @add_safety_data_type_to_info_column(ptr noundef readonly captures(none) %0, i32 noundef %1, ptr noundef readonly captures(none) %2) local_unnamed_addr #2 {
  switch i32 %1, label %get_cip_safety_data_type.exit.thread [
    i32 1, label %4
    i32 2, label %7
  ]

4:                                                ; preds = %3
  %5 = getelementptr inbounds nuw i8, ptr %2, i64 12
  %6 = load i32, ptr %5, align 4
  %switch.selectcmp.i = icmp eq i32 %6, 1
  br i1 %switch.selectcmp.i, label %get_cip_safety_data_type.exit.thread6, label %get_cip_safety_data_type.exit.thread

7:                                                ; preds = %3
  %8 = getelementptr inbounds nuw i8, ptr %2, i64 12
  %9 = load i32, ptr %8, align 4
  %switch.selectcmp15.i = icmp eq i32 %9, 2
  br i1 %switch.selectcmp15.i, label %get_cip_safety_data_type.exit.thread6, label %get_cip_safety_data_type.exit.thread

get_cip_safety_data_type.exit.thread:             ; preds = %4, %3, %7
  br label %get_cip_safety_data_type.exit.thread6

get_cip_safety_data_type.exit.thread6:            ; preds = %7, %4, %get_cip_safety_data_type.exit.thread
  %.str.11.sink = phi ptr [ @.str.11, %get_cip_safety_data_type.exit.thread ], [ @.str.10, %4 ], [ @.str.10, %7 ]
  %10 = getelementptr inbounds nuw i8, ptr %0, i64 8
  %11 = load ptr, ptr %10, align 8
  tail call void @col_append_str(ptr noundef %11, i32 noundef 25, ptr noundef nonnull %.str.11.sink)
  ret void
}